ARM GAS  C:\Users\CAROLI~1\AppData\Local\Temp\cc8lgy2a.s 			page 1


   1              		.cpu cortex-m0
   2              		.fpu softvfp
   3              		.eabi_attribute 20, 1
   4              		.eabi_attribute 21, 1
   5              		.eabi_attribute 23, 3
   6              		.eabi_attribute 24, 1
   7              		.eabi_attribute 25, 1
   8              		.eabi_attribute 26, 1
   9              		.eabi_attribute 30, 6
  10              		.eabi_attribute 34, 0
  11              		.eabi_attribute 18, 4
  12              		.code	16
  13              		.file	"main.c"
  14              		.text
  15              	.Ltext0:
  16              		.cfi_sections	.debug_frame
  17              		.global	ms_count
  18              		.bss
  19              		.align	1
  20              		.type	ms_count, %object
  21              		.size	ms_count, 2
  22              	ms_count:
  23 0000 0000     		.space	2
  24              		.global	comp_val1
  25              		.align	1
  26              		.type	comp_val1, %object
  27              		.size	comp_val1, 2
  28              	comp_val1:
  29 0002 0000     		.space	2
  30              		.global	comp_val2
  31              		.data
  32              		.align	1
  33              		.type	comp_val2, %object
  34              		.size	comp_val2, 2
  35              	comp_val2:
  36 0000 D007     		.short	2000
  37              		.global	increment
  38              		.type	increment, %object
  39              		.size	increment, 1
  40              	increment:
  41 0002 01       		.byte	1
  42 0003 00       		.section	.text.BLUE_ISR,"ax",%progbits
  43              		.align	2
  44              		.global	BLUE_ISR
  45              		.code	16
  46              		.thumb_func
  47              		.type	BLUE_ISR, %function
  48              	BLUE_ISR:
  49              	.LFB33:
  50              		.file 1 ".\\main.c"
   1:.\main.c      **** // This project uses PWM to control the intensity of the 
   2:.\main.c      **** // Red and Blue LEDs on the PSoC4 Pioneer Board. The PWM 
   3:.\main.c      **** // has a 1kHz frequency and the duty cycle of each output 
   4:.\main.c      **** // is adjusted using a 16-bit timer. The compare value for 
   5:.\main.c      **** // each output is either incremented or decremented at a 
   6:.\main.c      **** // frequency defined by UPDATE_PERIOD.
   7:.\main.c      **** 
ARM GAS  C:\Users\CAROLI~1\AppData\Local\Temp\cc8lgy2a.s 			page 2


   8:.\main.c      **** 
   9:.\main.c      **** #include <project.h>
  10:.\main.c      **** 
  11:.\main.c      **** #define ON 0
  12:.\main.c      **** #define OFF 1
  13:.\main.c      **** #define UPDATE_PERIOD 4 //ms
  14:.\main.c      **** #define COMPARE_VAL_MIN 51
  15:.\main.c      **** #define COMPARE_VAL_MAX 11949
  16:.\main.c      **** 
  17:.\main.c      **** uint16 ms_count = 0;
  18:.\main.c      **** uint16 comp_val1 = 0;
  19:.\main.c      **** uint16 comp_val2 = 2000;
  20:.\main.c      **** uint8 increment = 1;
  21:.\main.c      **** 
  22:.\main.c      **** /* functions to create
  23:.\main.c      **** - go forward
  24:.\main.c      **** - stop
  25:.\main.c      **** - turn (angle, direction)
  26:.\main.c      **** - slow down
  27:.\main.c      ****  */
  28:.\main.c      **** 
  29:.\main.c      **** 
  30:.\main.c      **** CY_ISR(BLUE_ISR) {
  51              		.loc 1 30 0
  52              		.cfi_startproc
  53 0000 80B5     		push	{r7, lr}
  54              	.LCFI0:
  55              		.cfi_def_cfa_offset 8
  56              		.cfi_offset 7, -8
  57              		.cfi_offset 14, -4
  58 0002 00AF     		add	r7, sp, #0
  59              	.LCFI1:
  60              		.cfi_def_cfa_register 7
  31:.\main.c      **** 	Blue_LED_Write(ON);
  61              		.loc 1 31 0
  62 0004 0020     		mov	r0, #0
  63 0006 FFF7FEFF 		bl	Blue_LED_Write
  32:.\main.c      **** }
  64              		.loc 1 32 0
  65 000a BD46     		mov	sp, r7
  66              		@ sp needed for prologue
  67 000c 80BD     		pop	{r7, pc}
  68              		.cfi_endproc
  69              	.LFE33:
  70              		.size	BLUE_ISR, .-BLUE_ISR
  71 000e C046     		.section	.text.RED_ISR,"ax",%progbits
  72              		.align	2
  73              		.global	RED_ISR
  74              		.code	16
  75              		.thumb_func
  76              		.type	RED_ISR, %function
  77              	RED_ISR:
  78              	.LFB34:
  33:.\main.c      **** 
  34:.\main.c      **** 
  35:.\main.c      **** 
  36:.\main.c      **** CY_ISR(RED_ISR) {
ARM GAS  C:\Users\CAROLI~1\AppData\Local\Temp\cc8lgy2a.s 			page 3


  79              		.loc 1 36 0
  80              		.cfi_startproc
  81 0000 80B5     		push	{r7, lr}
  82              	.LCFI2:
  83              		.cfi_def_cfa_offset 8
  84              		.cfi_offset 7, -8
  85              		.cfi_offset 14, -4
  86 0002 00AF     		add	r7, sp, #0
  87              	.LCFI3:
  88              		.cfi_def_cfa_register 7
  37:.\main.c      **** 	Red_LED_Write(ON);
  89              		.loc 1 37 0
  90 0004 0020     		mov	r0, #0
  91 0006 FFF7FEFF 		bl	Red_LED_Write
  38:.\main.c      **** }
  92              		.loc 1 38 0
  93 000a BD46     		mov	sp, r7
  94              		@ sp needed for prologue
  95 000c 80BD     		pop	{r7, pc}
  96              		.cfi_endproc
  97              	.LFE34:
  98              		.size	RED_ISR, .-RED_ISR
  99 000e C046     		.section	.text.TC_ISR,"ax",%progbits
 100              		.align	2
 101              		.global	TC_ISR
 102              		.code	16
 103              		.thumb_func
 104              		.type	TC_ISR, %function
 105              	TC_ISR:
 106              	.LFB35:
  39:.\main.c      **** 
  40:.\main.c      **** CY_ISR(TC_ISR) {
 107              		.loc 1 40 0
 108              		.cfi_startproc
 109 0000 80B5     		push	{r7, lr}
 110              	.LCFI4:
 111              		.cfi_def_cfa_offset 8
 112              		.cfi_offset 7, -8
 113              		.cfi_offset 14, -4
 114 0002 00AF     		add	r7, sp, #0
 115              	.LCFI5:
 116              		.cfi_def_cfa_register 7
  41:.\main.c      **** 	Blue_LED_Write(OFF);
 117              		.loc 1 41 0
 118 0004 0120     		mov	r0, #1
 119 0006 FFF7FEFF 		bl	Blue_LED_Write
  42:.\main.c      **** 	Red_LED_Write(OFF);
 120              		.loc 1 42 0
 121 000a 0120     		mov	r0, #1
 122 000c FFF7FEFF 		bl	Red_LED_Write
  43:.\main.c      **** }
 123              		.loc 1 43 0
 124 0010 BD46     		mov	sp, r7
 125              		@ sp needed for prologue
 126 0012 80BD     		pop	{r7, pc}
 127              		.cfi_endproc
 128              	.LFE35:
ARM GAS  C:\Users\CAROLI~1\AppData\Local\Temp\cc8lgy2a.s 			page 4


 129              		.size	TC_ISR, .-TC_ISR
 130              		.section	.text.MS_ISR,"ax",%progbits
 131              		.align	2
 132              		.global	MS_ISR
 133              		.code	16
 134              		.thumb_func
 135              		.type	MS_ISR, %function
 136              	MS_ISR:
 137              	.LFB36:
  44:.\main.c      **** 
  45:.\main.c      **** // This ISR updates the compare values at a frequency
  46:.\main.c      **** // defined by UPDATE_PERIOD
  47:.\main.c      **** CY_ISR(MS_ISR) {
 138              		.loc 1 47 0
 139              		.cfi_startproc
 140 0000 80B5     		push	{r7, lr}
 141              	.LCFI6:
 142              		.cfi_def_cfa_offset 8
 143              		.cfi_offset 7, -8
 144              		.cfi_offset 14, -4
 145 0002 00AF     		add	r7, sp, #0
 146              	.LCFI7:
 147              		.cfi_def_cfa_register 7
  48:.\main.c      **** 	//comp_val1 = 5000;
  49:.\main.c      ****     comp_val2 = 2000;
 148              		.loc 1 49 0
 149 0004 024B     		ldr	r3, .L5
 150 0006 FA22     		mov	r2, #250
 151 0008 D200     		lsl	r2, r2, #3
 152 000a 1A80     		strh	r2, [r3]
  50:.\main.c      ****     /*
  51:.\main.c      ****     ms_count++;
  52:.\main.c      **** 	if(ms_count == UPDATE_PERIOD) {
  53:.\main.c      **** 	
  54:.\main.c      **** 		if(increment) {
  55:.\main.c      **** 			comp_val1 += 50; // increment compare value 1
  56:.\main.c      **** 			comp_val2 -= 50; // decrement compare value 2
  57:.\main.c      **** 		}else{
  58:.\main.c      **** 			comp_val1 -= 50; // decrement compare value 1
  59:.\main.c      **** 			comp_val2 += 50; // increment compare value 2
  60:.\main.c      **** 		}
  61:.\main.c      **** 		
  62:.\main.c      **** 		if(comp_val1 < COMPARE_VAL_MIN) { // make increment "true"
  63:.\main.c      **** 			increment = 1;
  64:.\main.c      **** 		}
  65:.\main.c      **** 		if(comp_val1 > COMPARE_VAL_MAX) { // make decrement "true"
  66:.\main.c      **** 			increment = 0;
  67:.\main.c      **** 		}
  68:.\main.c      **** 		ms_count = 0; // reset ms counter
  69:.\main.c      **** 	}
  70:.\main.c      ****     */
  71:.\main.c      ****     
  72:.\main.c      **** }
 153              		.loc 1 72 0
 154 000c BD46     		mov	sp, r7
 155              		@ sp needed for prologue
 156 000e 80BD     		pop	{r7, pc}
ARM GAS  C:\Users\CAROLI~1\AppData\Local\Temp\cc8lgy2a.s 			page 5


 157              	.L6:
 158              		.align	2
 159              	.L5:
 160 0010 00000000 		.word	comp_val2
 161              		.cfi_endproc
 162              	.LFE36:
 163              		.size	MS_ISR, .-MS_ISR
 164              		.section	.text.main,"ax",%progbits
 165              		.align	2
 166              		.global	main
 167              		.code	16
 168              		.thumb_func
 169              		.type	main, %function
 170              	main:
 171              	.LFB37:
  73:.\main.c      **** 
  74:.\main.c      **** int main()
  75:.\main.c      **** {
 172              		.loc 1 75 0
 173              		.cfi_startproc
 174 0000 80B5     		push	{r7, lr}
 175              	.LCFI8:
 176              		.cfi_def_cfa_offset 8
 177              		.cfi_offset 7, -8
 178              		.cfi_offset 14, -4
 179 0002 00AF     		add	r7, sp, #0
 180              	.LCFI9:
 181              		.cfi_def_cfa_register 7
  76:.\main.c      **** 	Timer_1_Start(); // Configure and enable ms timer
 182              		.loc 1 76 0
 183 0004 FFF7FEFF 		bl	Timer_1_Start
  77:.\main.c      ****     PWM_1_Start(); // Configure and enable PWM module
 184              		.loc 1 77 0
 185 0008 FFF7FEFF 		bl	PWM_1_Start
  78:.\main.c      **** 	
  79:.\main.c      **** 	
  80:.\main.c      **** 	blue_isr_StartEx(BLUE_ISR); // Point to BLUE_ISR to turn on the blue LED
 186              		.loc 1 80 0
 187 000c 0B4B     		ldr	r3, .L9
 188 000e 181C     		mov	r0, r3
 189 0010 FFF7FEFF 		bl	blue_isr_StartEx
  81:.\main.c      **** 	red_isr_StartEx(RED_ISR); // Point to RED_ISR to turn on the red LED
 190              		.loc 1 81 0
 191 0014 0A4B     		ldr	r3, .L9+4
 192 0016 181C     		mov	r0, r3
 193 0018 FFF7FEFF 		bl	red_isr_StartEx
  82:.\main.c      **** 	tc_isr_StartEx(TC_ISR); // Point to TC_ISR to turn off both LEDs
 194              		.loc 1 82 0
 195 001c 094B     		ldr	r3, .L9+8
 196 001e 181C     		mov	r0, r3
 197 0020 FFF7FEFF 		bl	tc_isr_StartEx
  83:.\main.c      **** 	ms_isr_StartEx(MS_ISR); // Point to MS_ISR to update the compare values
 198              		.loc 1 83 0
 199 0024 084B     		ldr	r3, .L9+12
 200 0026 181C     		mov	r0, r3
 201 0028 FFF7FEFF 		bl	ms_isr_StartEx
  84:.\main.c      **** 
ARM GAS  C:\Users\CAROLI~1\AppData\Local\Temp\cc8lgy2a.s 			page 6


  85:.\main.c      ****     CyGlobalIntEnable; // Enable global interrupts
 202              		.loc 1 85 0
 203              	@ 85 ".\main.c" 1
 204 002c 62B6     		CPSIE   i
 205              	@ 0 "" 2
 206              		.code	16
 207              	.L8:
  86:.\main.c      **** 	
  87:.\main.c      ****     for(;;)
  88:.\main.c      ****     {
  89:.\main.c      ****         //PWM_1_WriteCompare1(comp_val1); // Write new compare value to PWM output 1
  90:.\main.c      **** 		PWM_1_WriteCompare2(comp_val2); // Write new compare value to PWM output 2
 208              		.loc 1 90 0 discriminator 1
 209 002e 074B     		ldr	r3, .L9+16
 210 0030 1B88     		ldrh	r3, [r3]
 211 0032 181C     		mov	r0, r3
 212 0034 FFF7FEFF 		bl	PWM_1_WriteCompare2
  91:.\main.c      ****     }
 213              		.loc 1 91 0 discriminator 1
 214 0038 F9E7     		b	.L8
 215              	.L10:
 216 003a C046     		.align	2
 217              	.L9:
 218 003c 00000000 		.word	BLUE_ISR
 219 0040 00000000 		.word	RED_ISR
 220 0044 00000000 		.word	TC_ISR
 221 0048 00000000 		.word	MS_ISR
 222 004c 00000000 		.word	comp_val2
 223              		.cfi_endproc
 224              	.LFE37:
 225              		.size	main, .-main
 226              		.text
 227              	.Letext0:
 228              		.file 2 "./Generated_Source/PSoC4/cytypes.h"