ARM GAS  C:\Users\CAROLI~1\AppData\Local\Temp\ccmlgLY5.s 			page 1


   1              		.cpu cortex-m0
   2              		.fpu softvfp
   3              		.eabi_attribute 20, 1
   4              		.eabi_attribute 21, 1
   5              		.eabi_attribute 23, 3
   6              		.eabi_attribute 24, 1
   7              		.eabi_attribute 25, 1
   8              		.eabi_attribute 26, 1
   9              		.eabi_attribute 30, 6
  10              		.eabi_attribute 34, 0
  11              		.eabi_attribute 18, 4
  12              		.code	16
  13              		.file	"Timer_1_PM.c"
  14              		.text
  15              	.Ltext0:
  16              		.cfi_sections	.debug_frame
  17              		.bss
  18              		.align	2
  19              	Timer_1_backup:
  20 0000 00000000 		.space	6
  20      0000
  21 0006 0000     		.section	.text.Timer_1_SaveConfig,"ax",%progbits
  22              		.align	2
  23              		.global	Timer_1_SaveConfig
  24              		.code	16
  25              		.thumb_func
  26              		.type	Timer_1_SaveConfig, %function
  27              	Timer_1_SaveConfig:
  28              	.LFB0:
  29              		.file 1 ".\\Generated_Source\\PSoC4\\Timer_1_PM.c"
   1:.\Generated_Source\PSoC4/Timer_1_PM.c **** /*******************************************************************************
   2:.\Generated_Source\PSoC4/Timer_1_PM.c **** * File Name: Timer_1_PM.c
   3:.\Generated_Source\PSoC4/Timer_1_PM.c **** * Version 2.50
   4:.\Generated_Source\PSoC4/Timer_1_PM.c **** *
   5:.\Generated_Source\PSoC4/Timer_1_PM.c **** *  Description:
   6:.\Generated_Source\PSoC4/Timer_1_PM.c **** *     This file provides the power management source code to API for the
   7:.\Generated_Source\PSoC4/Timer_1_PM.c **** *     Timer.
   8:.\Generated_Source\PSoC4/Timer_1_PM.c **** *
   9:.\Generated_Source\PSoC4/Timer_1_PM.c **** *   Note:
  10:.\Generated_Source\PSoC4/Timer_1_PM.c **** *     None
  11:.\Generated_Source\PSoC4/Timer_1_PM.c **** *
  12:.\Generated_Source\PSoC4/Timer_1_PM.c **** *******************************************************************************
  13:.\Generated_Source\PSoC4/Timer_1_PM.c **** * Copyright 2008-2012, Cypress Semiconductor Corporation.  All rights reserved.
  14:.\Generated_Source\PSoC4/Timer_1_PM.c **** * You may use this file only in accordance with the license, terms, conditions,
  15:.\Generated_Source\PSoC4/Timer_1_PM.c **** * disclaimers, and limitations in the end user license agreement accompanying
  16:.\Generated_Source\PSoC4/Timer_1_PM.c **** * the software package with which this file was provided.
  17:.\Generated_Source\PSoC4/Timer_1_PM.c **** ********************************************************************************/
  18:.\Generated_Source\PSoC4/Timer_1_PM.c **** 
  19:.\Generated_Source\PSoC4/Timer_1_PM.c **** #include "Timer_1.h"
  20:.\Generated_Source\PSoC4/Timer_1_PM.c **** static Timer_1_backupStruct Timer_1_backup;
  21:.\Generated_Source\PSoC4/Timer_1_PM.c **** 
  22:.\Generated_Source\PSoC4/Timer_1_PM.c **** 
  23:.\Generated_Source\PSoC4/Timer_1_PM.c **** /*******************************************************************************
  24:.\Generated_Source\PSoC4/Timer_1_PM.c **** * Function Name: Timer_1_SaveConfig
  25:.\Generated_Source\PSoC4/Timer_1_PM.c **** ********************************************************************************
  26:.\Generated_Source\PSoC4/Timer_1_PM.c **** *
  27:.\Generated_Source\PSoC4/Timer_1_PM.c **** * Summary:
ARM GAS  C:\Users\CAROLI~1\AppData\Local\Temp\ccmlgLY5.s 			page 2


  28:.\Generated_Source\PSoC4/Timer_1_PM.c **** *     Save the current user configuration
  29:.\Generated_Source\PSoC4/Timer_1_PM.c **** *
  30:.\Generated_Source\PSoC4/Timer_1_PM.c **** * Parameters:
  31:.\Generated_Source\PSoC4/Timer_1_PM.c **** *  void
  32:.\Generated_Source\PSoC4/Timer_1_PM.c **** *
  33:.\Generated_Source\PSoC4/Timer_1_PM.c **** * Return:
  34:.\Generated_Source\PSoC4/Timer_1_PM.c **** *  void
  35:.\Generated_Source\PSoC4/Timer_1_PM.c **** *
  36:.\Generated_Source\PSoC4/Timer_1_PM.c **** * Global variables:
  37:.\Generated_Source\PSoC4/Timer_1_PM.c **** *  Timer_1_backup:  Variables of this global structure are modified to
  38:.\Generated_Source\PSoC4/Timer_1_PM.c **** *  store the values of non retention configuration registers when Sleep() API is
  39:.\Generated_Source\PSoC4/Timer_1_PM.c **** *  called.
  40:.\Generated_Source\PSoC4/Timer_1_PM.c **** *
  41:.\Generated_Source\PSoC4/Timer_1_PM.c **** *******************************************************************************/
  42:.\Generated_Source\PSoC4/Timer_1_PM.c **** void Timer_1_SaveConfig(void) 
  43:.\Generated_Source\PSoC4/Timer_1_PM.c **** {
  30              		.loc 1 43 0
  31              		.cfi_startproc
  32 0000 80B5     		push	{r7, lr}
  33              	.LCFI0:
  34              		.cfi_def_cfa_offset 8
  35              		.cfi_offset 7, -8
  36              		.cfi_offset 14, -4
  37 0002 00AF     		add	r7, sp, #0
  38              	.LCFI1:
  39              		.cfi_def_cfa_register 7
  44:.\Generated_Source\PSoC4/Timer_1_PM.c ****     #if (!Timer_1_UsingFixedFunction)
  45:.\Generated_Source\PSoC4/Timer_1_PM.c ****         /* Backup the UDB non-rentention registers for CY_UDB_V0 */
  46:.\Generated_Source\PSoC4/Timer_1_PM.c ****         #if (CY_UDB_V0)
  47:.\Generated_Source\PSoC4/Timer_1_PM.c ****             Timer_1_backup.TimerUdb = Timer_1_ReadCounter();
  48:.\Generated_Source\PSoC4/Timer_1_PM.c ****             Timer_1_backup.TimerPeriod = Timer_1_ReadPeriod();
  49:.\Generated_Source\PSoC4/Timer_1_PM.c ****             Timer_1_backup.InterruptMaskValue = Timer_1_STATUS_MASK;
  50:.\Generated_Source\PSoC4/Timer_1_PM.c ****             #if (Timer_1_UsingHWCaptureCounter)
  51:.\Generated_Source\PSoC4/Timer_1_PM.c ****                 Timer_1_backup.TimerCaptureCounter = Timer_1_ReadCaptureCount();
  52:.\Generated_Source\PSoC4/Timer_1_PM.c ****             #endif /* Backup the UDB non-rentention register capture counter for CY_UDB_V0 */
  53:.\Generated_Source\PSoC4/Timer_1_PM.c ****         #endif /* Backup the UDB non-rentention registers for CY_UDB_V0 */
  54:.\Generated_Source\PSoC4/Timer_1_PM.c **** 
  55:.\Generated_Source\PSoC4/Timer_1_PM.c ****         #if (CY_UDB_V1)
  56:.\Generated_Source\PSoC4/Timer_1_PM.c ****             Timer_1_backup.TimerUdb = Timer_1_ReadCounter();
  40              		.loc 1 56 0
  41 0004 FFF7FEFF 		bl	Timer_1_ReadCounter
  42 0008 031C     		mov	r3, r0
  43 000a 1A1C     		mov	r2, r3
  44 000c 074B     		ldr	r3, .L2
  45 000e 5A80     		strh	r2, [r3, #2]
  57:.\Generated_Source\PSoC4/Timer_1_PM.c ****             Timer_1_backup.InterruptMaskValue = Timer_1_STATUS_MASK;
  46              		.loc 1 57 0
  47 0010 074B     		ldr	r3, .L2+4
  48 0012 1B78     		ldrb	r3, [r3]
  49 0014 DAB2     		uxtb	r2, r3
  50 0016 054B     		ldr	r3, .L2
  51 0018 1A71     		strb	r2, [r3, #4]
  58:.\Generated_Source\PSoC4/Timer_1_PM.c ****             #if (Timer_1_UsingHWCaptureCounter)
  59:.\Generated_Source\PSoC4/Timer_1_PM.c ****                 Timer_1_backup.TimerCaptureCounter = Timer_1_ReadCaptureCount();
  60:.\Generated_Source\PSoC4/Timer_1_PM.c ****             #endif /* Back Up capture counter register  */
  61:.\Generated_Source\PSoC4/Timer_1_PM.c ****         #endif /* Backup non retention registers, interrupt mask and capture counter for CY_UDB_V1 
  62:.\Generated_Source\PSoC4/Timer_1_PM.c **** 
ARM GAS  C:\Users\CAROLI~1\AppData\Local\Temp\ccmlgLY5.s 			page 3


  63:.\Generated_Source\PSoC4/Timer_1_PM.c ****         #if(!Timer_1_ControlRegRemoved)
  64:.\Generated_Source\PSoC4/Timer_1_PM.c ****             Timer_1_backup.TimerControlRegister = Timer_1_ReadControlRegister();
  52              		.loc 1 64 0
  53 001a FFF7FEFF 		bl	Timer_1_ReadControlRegister
  54 001e 031C     		mov	r3, r0
  55 0020 1A1C     		mov	r2, r3
  56 0022 024B     		ldr	r3, .L2
  57 0024 5A71     		strb	r2, [r3, #5]
  65:.\Generated_Source\PSoC4/Timer_1_PM.c ****         #endif /* Backup the enable state of the Timer component */
  66:.\Generated_Source\PSoC4/Timer_1_PM.c ****     #endif /* Backup non retention registers in UDB implementation. All fixed function registers ar
  67:.\Generated_Source\PSoC4/Timer_1_PM.c **** }
  58              		.loc 1 67 0
  59 0026 BD46     		mov	sp, r7
  60              		@ sp needed for prologue
  61 0028 80BD     		pop	{r7, pc}
  62              	.L3:
  63 002a C046     		.align	2
  64              	.L2:
  65 002c 00000000 		.word	Timer_1_backup
  66 0030 83000F40 		.word	1074724995
  67              		.cfi_endproc
  68              	.LFE0:
  69              		.size	Timer_1_SaveConfig, .-Timer_1_SaveConfig
  70              		.section	.text.Timer_1_RestoreConfig,"ax",%progbits
  71              		.align	2
  72              		.global	Timer_1_RestoreConfig
  73              		.code	16
  74              		.thumb_func
  75              		.type	Timer_1_RestoreConfig, %function
  76              	Timer_1_RestoreConfig:
  77              	.LFB1:
  68:.\Generated_Source\PSoC4/Timer_1_PM.c **** 
  69:.\Generated_Source\PSoC4/Timer_1_PM.c **** 
  70:.\Generated_Source\PSoC4/Timer_1_PM.c **** /*******************************************************************************
  71:.\Generated_Source\PSoC4/Timer_1_PM.c **** * Function Name: Timer_1_RestoreConfig
  72:.\Generated_Source\PSoC4/Timer_1_PM.c **** ********************************************************************************
  73:.\Generated_Source\PSoC4/Timer_1_PM.c **** *
  74:.\Generated_Source\PSoC4/Timer_1_PM.c **** * Summary:
  75:.\Generated_Source\PSoC4/Timer_1_PM.c **** *  Restores the current user configuration.
  76:.\Generated_Source\PSoC4/Timer_1_PM.c **** *
  77:.\Generated_Source\PSoC4/Timer_1_PM.c **** * Parameters:
  78:.\Generated_Source\PSoC4/Timer_1_PM.c **** *  void
  79:.\Generated_Source\PSoC4/Timer_1_PM.c **** *
  80:.\Generated_Source\PSoC4/Timer_1_PM.c **** * Return:
  81:.\Generated_Source\PSoC4/Timer_1_PM.c **** *  void
  82:.\Generated_Source\PSoC4/Timer_1_PM.c **** *
  83:.\Generated_Source\PSoC4/Timer_1_PM.c **** * Global variables:
  84:.\Generated_Source\PSoC4/Timer_1_PM.c **** *  Timer_1_backup:  Variables of this global structure are used to
  85:.\Generated_Source\PSoC4/Timer_1_PM.c **** *  restore the values of non retention registers on wakeup from sleep mode.
  86:.\Generated_Source\PSoC4/Timer_1_PM.c **** *
  87:.\Generated_Source\PSoC4/Timer_1_PM.c **** *******************************************************************************/
  88:.\Generated_Source\PSoC4/Timer_1_PM.c **** void Timer_1_RestoreConfig(void) 
  89:.\Generated_Source\PSoC4/Timer_1_PM.c **** {   
  78              		.loc 1 89 0
  79              		.cfi_startproc
  80 0000 80B5     		push	{r7, lr}
  81              	.LCFI2:
ARM GAS  C:\Users\CAROLI~1\AppData\Local\Temp\ccmlgLY5.s 			page 4


  82              		.cfi_def_cfa_offset 8
  83              		.cfi_offset 7, -8
  84              		.cfi_offset 14, -4
  85 0002 00AF     		add	r7, sp, #0
  86              	.LCFI3:
  87              		.cfi_def_cfa_register 7
  90:.\Generated_Source\PSoC4/Timer_1_PM.c ****     #if (!Timer_1_UsingFixedFunction)
  91:.\Generated_Source\PSoC4/Timer_1_PM.c ****         /* Restore the UDB non-rentention registers for CY_UDB_V0 */
  92:.\Generated_Source\PSoC4/Timer_1_PM.c ****         #if (CY_UDB_V0)
  93:.\Generated_Source\PSoC4/Timer_1_PM.c ****             /* Interrupt State Backup for Critical Region*/
  94:.\Generated_Source\PSoC4/Timer_1_PM.c ****             uint8 Timer_1_interruptState;
  95:.\Generated_Source\PSoC4/Timer_1_PM.c **** 
  96:.\Generated_Source\PSoC4/Timer_1_PM.c ****             Timer_1_WriteCounter(Timer_1_backup.TimerUdb);
  97:.\Generated_Source\PSoC4/Timer_1_PM.c ****             Timer_1_WritePeriod(Timer_1_backup.TimerPeriod);
  98:.\Generated_Source\PSoC4/Timer_1_PM.c ****             /* CyEnterCriticalRegion and CyExitCriticalRegion are used to mark following region cri
  99:.\Generated_Source\PSoC4/Timer_1_PM.c ****             /* Enter Critical Region*/
 100:.\Generated_Source\PSoC4/Timer_1_PM.c ****             Timer_1_interruptState = CyEnterCriticalSection();
 101:.\Generated_Source\PSoC4/Timer_1_PM.c ****             /* Use the interrupt output of the status register for IRQ output */
 102:.\Generated_Source\PSoC4/Timer_1_PM.c ****             Timer_1_STATUS_AUX_CTRL |= Timer_1_STATUS_ACTL_INT_EN_MASK;
 103:.\Generated_Source\PSoC4/Timer_1_PM.c ****             /* Exit Critical Region*/
 104:.\Generated_Source\PSoC4/Timer_1_PM.c ****             CyExitCriticalSection(Timer_1_interruptState);
 105:.\Generated_Source\PSoC4/Timer_1_PM.c ****             Timer_1_STATUS_MASK =Timer_1_backup.InterruptMaskValue;
 106:.\Generated_Source\PSoC4/Timer_1_PM.c ****             #if (Timer_1_UsingHWCaptureCounter)
 107:.\Generated_Source\PSoC4/Timer_1_PM.c ****                 Timer_1_SetCaptureCount(Timer_1_backup.TimerCaptureCounter);
 108:.\Generated_Source\PSoC4/Timer_1_PM.c ****             #endif /* Restore the UDB non-rentention register capture counter for CY_UDB_V0 */
 109:.\Generated_Source\PSoC4/Timer_1_PM.c ****         #endif /* Restore the UDB non-rentention registers for CY_UDB_V0 */
 110:.\Generated_Source\PSoC4/Timer_1_PM.c **** 
 111:.\Generated_Source\PSoC4/Timer_1_PM.c ****         #if (CY_UDB_V1)
 112:.\Generated_Source\PSoC4/Timer_1_PM.c ****             Timer_1_WriteCounter(Timer_1_backup.TimerUdb);
  88              		.loc 1 112 0
  89 0004 074B     		ldr	r3, .L5
  90 0006 5B88     		ldrh	r3, [r3, #2]
  91 0008 181C     		mov	r0, r3
  92 000a FFF7FEFF 		bl	Timer_1_WriteCounter
 113:.\Generated_Source\PSoC4/Timer_1_PM.c ****             Timer_1_STATUS_MASK =Timer_1_backup.InterruptMaskValue;
  93              		.loc 1 113 0
  94 000e 064B     		ldr	r3, .L5+4
  95 0010 044A     		ldr	r2, .L5
  96 0012 1279     		ldrb	r2, [r2, #4]
  97 0014 1A70     		strb	r2, [r3]
 114:.\Generated_Source\PSoC4/Timer_1_PM.c ****             #if (Timer_1_UsingHWCaptureCounter)
 115:.\Generated_Source\PSoC4/Timer_1_PM.c ****                 Timer_1_SetCaptureCount(Timer_1_backup.TimerCaptureCounter);
 116:.\Generated_Source\PSoC4/Timer_1_PM.c ****             #endif /* Restore Capture counter register*/
 117:.\Generated_Source\PSoC4/Timer_1_PM.c ****         #endif /* Restore up non retention registers, interrupt mask and capture counter for CY_UDB
 118:.\Generated_Source\PSoC4/Timer_1_PM.c **** 
 119:.\Generated_Source\PSoC4/Timer_1_PM.c ****         #if(!Timer_1_ControlRegRemoved)
 120:.\Generated_Source\PSoC4/Timer_1_PM.c ****             Timer_1_WriteControlRegister(Timer_1_backup.TimerControlRegister);
  98              		.loc 1 120 0
  99 0016 034B     		ldr	r3, .L5
 100 0018 5B79     		ldrb	r3, [r3, #5]
 101 001a 181C     		mov	r0, r3
 102 001c FFF7FEFF 		bl	Timer_1_WriteControlRegister
 121:.\Generated_Source\PSoC4/Timer_1_PM.c ****         #endif /* Restore the enable state of the Timer component */
 122:.\Generated_Source\PSoC4/Timer_1_PM.c ****     #endif /* Restore non retention registers in the UDB implementation only */
 123:.\Generated_Source\PSoC4/Timer_1_PM.c **** }
 103              		.loc 1 123 0
 104 0020 BD46     		mov	sp, r7
ARM GAS  C:\Users\CAROLI~1\AppData\Local\Temp\ccmlgLY5.s 			page 5


 105              		@ sp needed for prologue
 106 0022 80BD     		pop	{r7, pc}
 107              	.L6:
 108              		.align	2
 109              	.L5:
 110 0024 00000000 		.word	Timer_1_backup
 111 0028 83000F40 		.word	1074724995
 112              		.cfi_endproc
 113              	.LFE1:
 114              		.size	Timer_1_RestoreConfig, .-Timer_1_RestoreConfig
 115              		.section	.text.Timer_1_Sleep,"ax",%progbits
 116              		.align	2
 117              		.global	Timer_1_Sleep
 118              		.code	16
 119              		.thumb_func
 120              		.type	Timer_1_Sleep, %function
 121              	Timer_1_Sleep:
 122              	.LFB2:
 124:.\Generated_Source\PSoC4/Timer_1_PM.c **** 
 125:.\Generated_Source\PSoC4/Timer_1_PM.c **** 
 126:.\Generated_Source\PSoC4/Timer_1_PM.c **** /*******************************************************************************
 127:.\Generated_Source\PSoC4/Timer_1_PM.c **** * Function Name: Timer_1_Sleep
 128:.\Generated_Source\PSoC4/Timer_1_PM.c **** ********************************************************************************
 129:.\Generated_Source\PSoC4/Timer_1_PM.c **** *
 130:.\Generated_Source\PSoC4/Timer_1_PM.c **** * Summary:
 131:.\Generated_Source\PSoC4/Timer_1_PM.c **** *     Stop and Save the user configuration
 132:.\Generated_Source\PSoC4/Timer_1_PM.c **** *
 133:.\Generated_Source\PSoC4/Timer_1_PM.c **** * Parameters:
 134:.\Generated_Source\PSoC4/Timer_1_PM.c **** *  void
 135:.\Generated_Source\PSoC4/Timer_1_PM.c **** *
 136:.\Generated_Source\PSoC4/Timer_1_PM.c **** * Return:
 137:.\Generated_Source\PSoC4/Timer_1_PM.c **** *  void
 138:.\Generated_Source\PSoC4/Timer_1_PM.c **** *
 139:.\Generated_Source\PSoC4/Timer_1_PM.c **** * Global variables:
 140:.\Generated_Source\PSoC4/Timer_1_PM.c **** *  Timer_1_backup.TimerEnableState:  Is modified depending on the
 141:.\Generated_Source\PSoC4/Timer_1_PM.c **** *  enable state of the block before entering sleep mode.
 142:.\Generated_Source\PSoC4/Timer_1_PM.c **** *
 143:.\Generated_Source\PSoC4/Timer_1_PM.c **** *******************************************************************************/
 144:.\Generated_Source\PSoC4/Timer_1_PM.c **** void Timer_1_Sleep(void) 
 145:.\Generated_Source\PSoC4/Timer_1_PM.c **** {
 123              		.loc 1 145 0
 124              		.cfi_startproc
 125 0000 80B5     		push	{r7, lr}
 126              	.LCFI4:
 127              		.cfi_def_cfa_offset 8
 128              		.cfi_offset 7, -8
 129              		.cfi_offset 14, -4
 130 0002 00AF     		add	r7, sp, #0
 131              	.LCFI5:
 132              		.cfi_def_cfa_register 7
 146:.\Generated_Source\PSoC4/Timer_1_PM.c ****     #if(!Timer_1_ControlRegRemoved)
 147:.\Generated_Source\PSoC4/Timer_1_PM.c ****         /* Save Counter's enable state */
 148:.\Generated_Source\PSoC4/Timer_1_PM.c ****         if(Timer_1_CTRL_ENABLE == (Timer_1_CONTROL & Timer_1_CTRL_ENABLE))
 133              		.loc 1 148 0
 134 0004 094B     		ldr	r3, .L10
 135 0006 1B78     		ldrb	r3, [r3]
 136 0008 DBB2     		uxtb	r3, r3
ARM GAS  C:\Users\CAROLI~1\AppData\Local\Temp\ccmlgLY5.s 			page 6


 137 000a DBB2     		uxtb	r3, r3
 138 000c 5BB2     		sxtb	r3, r3
 139 000e 002B     		cmp	r3, #0
 140 0010 03DA     		bge	.L8
 149:.\Generated_Source\PSoC4/Timer_1_PM.c ****         {
 150:.\Generated_Source\PSoC4/Timer_1_PM.c ****             /* Timer is enabled */
 151:.\Generated_Source\PSoC4/Timer_1_PM.c ****             Timer_1_backup.TimerEnableState = 1u;
 141              		.loc 1 151 0
 142 0012 074B     		ldr	r3, .L10+4
 143 0014 0122     		mov	r2, #1
 144 0016 1A70     		strb	r2, [r3]
 145 0018 02E0     		b	.L9
 146              	.L8:
 152:.\Generated_Source\PSoC4/Timer_1_PM.c ****         }
 153:.\Generated_Source\PSoC4/Timer_1_PM.c ****         else
 154:.\Generated_Source\PSoC4/Timer_1_PM.c ****         {
 155:.\Generated_Source\PSoC4/Timer_1_PM.c ****             /* Timer is disabled */
 156:.\Generated_Source\PSoC4/Timer_1_PM.c ****             Timer_1_backup.TimerEnableState = 0u;
 147              		.loc 1 156 0
 148 001a 054B     		ldr	r3, .L10+4
 149 001c 0022     		mov	r2, #0
 150 001e 1A70     		strb	r2, [r3]
 151              	.L9:
 157:.\Generated_Source\PSoC4/Timer_1_PM.c ****         }
 158:.\Generated_Source\PSoC4/Timer_1_PM.c ****     #endif /* Back up enable state from the Timer control register */
 159:.\Generated_Source\PSoC4/Timer_1_PM.c ****     Timer_1_Stop();
 152              		.loc 1 159 0
 153 0020 FFF7FEFF 		bl	Timer_1_Stop
 160:.\Generated_Source\PSoC4/Timer_1_PM.c ****     Timer_1_SaveConfig();
 154              		.loc 1 160 0
 155 0024 FFF7FEFF 		bl	Timer_1_SaveConfig
 161:.\Generated_Source\PSoC4/Timer_1_PM.c **** }
 156              		.loc 1 161 0
 157 0028 BD46     		mov	sp, r7
 158              		@ sp needed for prologue
 159 002a 80BD     		pop	{r7, pc}
 160              	.L11:
 161              		.align	2
 162              	.L10:
 163 002c 73000F40 		.word	1074724979
 164 0030 00000000 		.word	Timer_1_backup
 165              		.cfi_endproc
 166              	.LFE2:
 167              		.size	Timer_1_Sleep, .-Timer_1_Sleep
 168              		.section	.text.Timer_1_Wakeup,"ax",%progbits
 169              		.align	2
 170              		.global	Timer_1_Wakeup
 171              		.code	16
 172              		.thumb_func
 173              		.type	Timer_1_Wakeup, %function
 174              	Timer_1_Wakeup:
 175              	.LFB3:
 162:.\Generated_Source\PSoC4/Timer_1_PM.c **** 
 163:.\Generated_Source\PSoC4/Timer_1_PM.c **** 
 164:.\Generated_Source\PSoC4/Timer_1_PM.c **** /*******************************************************************************
 165:.\Generated_Source\PSoC4/Timer_1_PM.c **** * Function Name: Timer_1_Wakeup
 166:.\Generated_Source\PSoC4/Timer_1_PM.c **** ********************************************************************************
ARM GAS  C:\Users\CAROLI~1\AppData\Local\Temp\ccmlgLY5.s 			page 7


 167:.\Generated_Source\PSoC4/Timer_1_PM.c **** *
 168:.\Generated_Source\PSoC4/Timer_1_PM.c **** * Summary:
 169:.\Generated_Source\PSoC4/Timer_1_PM.c **** *  Restores and enables the user configuration
 170:.\Generated_Source\PSoC4/Timer_1_PM.c **** *
 171:.\Generated_Source\PSoC4/Timer_1_PM.c **** * Parameters:
 172:.\Generated_Source\PSoC4/Timer_1_PM.c **** *  void
 173:.\Generated_Source\PSoC4/Timer_1_PM.c **** *
 174:.\Generated_Source\PSoC4/Timer_1_PM.c **** * Return:
 175:.\Generated_Source\PSoC4/Timer_1_PM.c **** *  void
 176:.\Generated_Source\PSoC4/Timer_1_PM.c **** *
 177:.\Generated_Source\PSoC4/Timer_1_PM.c **** * Global variables:
 178:.\Generated_Source\PSoC4/Timer_1_PM.c **** *  Timer_1_backup.enableState:  Is used to restore the enable state of
 179:.\Generated_Source\PSoC4/Timer_1_PM.c **** *  block on wakeup from sleep mode.
 180:.\Generated_Source\PSoC4/Timer_1_PM.c **** *
 181:.\Generated_Source\PSoC4/Timer_1_PM.c **** *******************************************************************************/
 182:.\Generated_Source\PSoC4/Timer_1_PM.c **** void Timer_1_Wakeup(void) 
 183:.\Generated_Source\PSoC4/Timer_1_PM.c **** {
 176              		.loc 1 183 0
 177              		.cfi_startproc
 178 0000 80B5     		push	{r7, lr}
 179              	.LCFI6:
 180              		.cfi_def_cfa_offset 8
 181              		.cfi_offset 7, -8
 182              		.cfi_offset 14, -4
 183 0002 00AF     		add	r7, sp, #0
 184              	.LCFI7:
 185              		.cfi_def_cfa_register 7
 184:.\Generated_Source\PSoC4/Timer_1_PM.c ****     Timer_1_RestoreConfig();
 186              		.loc 1 184 0
 187 0004 FFF7FEFF 		bl	Timer_1_RestoreConfig
 185:.\Generated_Source\PSoC4/Timer_1_PM.c ****     #if(!Timer_1_ControlRegRemoved)
 186:.\Generated_Source\PSoC4/Timer_1_PM.c ****         if(Timer_1_backup.TimerEnableState == 1u)
 188              		.loc 1 186 0
 189 0008 034B     		ldr	r3, .L14
 190 000a 1B78     		ldrb	r3, [r3]
 191 000c 012B     		cmp	r3, #1
 192 000e 01D1     		bne	.L12
 187:.\Generated_Source\PSoC4/Timer_1_PM.c ****         {     /* Enable Timer's operation */
 188:.\Generated_Source\PSoC4/Timer_1_PM.c ****                 Timer_1_Enable();
 193              		.loc 1 188 0
 194 0010 FFF7FEFF 		bl	Timer_1_Enable
 195              	.L12:
 189:.\Generated_Source\PSoC4/Timer_1_PM.c ****         } /* Do nothing if Timer was disabled before */
 190:.\Generated_Source\PSoC4/Timer_1_PM.c ****     #endif /* Remove this code section if Control register is removed */
 191:.\Generated_Source\PSoC4/Timer_1_PM.c **** }
 196              		.loc 1 191 0
 197 0014 BD46     		mov	sp, r7
 198              		@ sp needed for prologue
 199 0016 80BD     		pop	{r7, pc}
 200              	.L15:
 201              		.align	2
 202              	.L14:
 203 0018 00000000 		.word	Timer_1_backup
 204              		.cfi_endproc
 205              	.LFE3:
 206              		.size	Timer_1_Wakeup, .-Timer_1_Wakeup
 207              		.text
ARM GAS  C:\Users\CAROLI~1\AppData\Local\Temp\ccmlgLY5.s 			page 8


 208              	.Letext0:
 209              		.file 2 ".\\Generated_Source\\PSoC4\\cytypes.h"
 210              		.file 3 ".\\Generated_Source\\PSoC4\\Timer_1.h"